; ModuleID = '31/141.c'
source_filename = "31/141.c"
target datalayout = "e-m:e-p270:32:32-p271:32:32-p272:64:64-i64:64-f80:128-n8:16:32:64-S128"
target triple = "x86_64-pc-linux-gnu"

%struct.stu = type { [10 x i8], [20 x i8], i8, i32, float, [30 x i8], %struct.stu* }

@n = common dso_local global i32 0, align 4
@.str = private unnamed_addr constant [18 x i8] c"%s %s %c %d %f %s\00", align 1
@.str.1 = private unnamed_addr constant [3 x i8] c"%s\00", align 1
@.str.2 = private unnamed_addr constant [4 x i8] c"end\00", align 1
@.str.3 = private unnamed_addr constant [16 x i8] c" %s %c %d %f %s\00", align 1
@.str.4 = private unnamed_addr constant [19 x i8] c"%s %s %c %d %g %s\0A\00", align 1

; Function Attrs: noinline nounwind uwtable
define dso_local %struct.stu* @create() #0 {
  %1 = alloca %struct.stu*, align 8
  %2 = alloca %struct.stu*, align 8
  %3 = alloca %struct.stu*, align 8
  store i32 1, i32* @n, align 4
  %4 = call noalias i8* @malloc(i64 100) #4
  %5 = bitcast i8* %4 to %struct.stu*
  store %struct.stu* %5, %struct.stu** %2, align 8
  %6 = load %struct.stu*, %struct.stu** %2, align 8
  %7 = getelementptr inbounds %struct.stu, %struct.stu* %6, i32 0, i32 0
  %8 = load %struct.stu*, %struct.stu** %2, align 8
  %9 = getelementptr inbounds %struct.stu, %struct.stu* %8, i32 0, i32 1
  %10 = load %struct.stu*, %struct.stu** %2, align 8
  %11 = getelementptr inbounds %struct.stu, %struct.stu* %10, i32 0, i32 2
  %12 = load %struct.stu*, %struct.stu** %2, align 8
  %13 = getelementptr inbounds %struct.stu, %struct.stu* %12, i32 0, i32 3
  %14 = load %struct.stu*, %struct.stu** %2, align 8
  %15 = getelementptr inbounds %struct.stu, %struct.stu* %14, i32 0, i32 4
  %16 = load %struct.stu*, %struct.stu** %2, align 8
  %17 = getelementptr inbounds %struct.stu, %struct.stu* %16, i32 0, i32 5
  %18 = call i32 (i8*, ...) @__isoc99_scanf(i8* getelementptr inbounds ([18 x i8], [18 x i8]* @.str, i64 0, i64 0), [10 x i8]* %7, [20 x i8]* %9, i8* %11, i32* %13, float* %15, [30 x i8]* %17)
  %19 = load %struct.stu*, %struct.stu** %2, align 8
  %20 = getelementptr inbounds %struct.stu, %struct.stu* %19, i32 0, i32 6
  store %struct.stu* null, %struct.stu** %20, align 8
  %21 = load %struct.stu*, %struct.stu** %2, align 8
  store %struct.stu* %21, %struct.stu** %1, align 8
  %22 = load %struct.stu*, %struct.stu** %2, align 8
  store %struct.stu* %22, %struct.stu** %3, align 8
  br label %23

23:                                               ; preds = %58, %0
  %24 = call noalias i8* @malloc(i64 100) #4
  %25 = bitcast i8* %24 to %struct.stu*
  store %struct.stu* %25, %struct.stu** %2, align 8
  %26 = load %struct.stu*, %struct.stu** %2, align 8
  %27 = getelementptr inbounds %struct.stu, %struct.stu* %26, i32 0, i32 0
  %28 = call i32 (i8*, ...) @__isoc99_scanf(i8* getelementptr inbounds ([3 x i8], [3 x i8]* @.str.1, i64 0, i64 0), [10 x i8]* %27)
  %29 = load %struct.stu*, %struct.stu** %2, align 8
  %30 = getelementptr inbounds %struct.stu, %struct.stu* %29, i32 0, i32 0
  %31 = getelementptr inbounds [10 x i8], [10 x i8]* %30, i64 0, i64 0
  %32 = call i32 @strcmp(i8* %31, i8* getelementptr inbounds ([4 x i8], [4 x i8]* @.str.2, i64 0, i64 0)) #5
  %33 = icmp eq i32 %32, 0
  br i1 %33, label %34, label %37

34:                                               ; preds = %23
  %35 = load %struct.stu*, %struct.stu** %2, align 8
  %36 = bitcast %struct.stu* %35 to i8*
  call void @free(i8* %36) #4
  br label %59

37:                                               ; preds = %23
  %38 = load %struct.stu*, %struct.stu** %2, align 8
  %39 = getelementptr inbounds %struct.stu, %struct.stu* %38, i32 0, i32 1
  %40 = load %struct.stu*, %struct.stu** %2, align 8
  %41 = getelementptr inbounds %struct.stu, %struct.stu* %40, i32 0, i32 2
  %42 = load %struct.stu*, %struct.stu** %2, align 8
  %43 = getelementptr inbounds %struct.stu, %struct.stu* %42, i32 0, i32 3
  %44 = load %struct.stu*, %struct.stu** %2, align 8
  %45 = getelementptr inbounds %struct.stu, %struct.stu* %44, i32 0, i32 4
  %46 = load %struct.stu*, %struct.stu** %2, align 8
  %47 = getelementptr inbounds %struct.stu, %struct.stu* %46, i32 0, i32 5
  %48 = call i32 (i8*, ...) @__isoc99_scanf(i8* getelementptr inbounds ([16 x i8], [16 x i8]* @.str.3, i64 0, i64 0), [20 x i8]* %39, i8* %41, i32* %43, float* %45, [30 x i8]* %47)
  %49 = load %struct.stu*, %struct.stu** %2, align 8
  %50 = getelementptr inbounds %struct.stu, %struct.stu* %49, i32 0, i32 6
  store %struct.stu* null, %struct.stu** %50, align 8
  %51 = load %struct.stu*, %struct.stu** %2, align 8
  %52 = load %struct.stu*, %struct.stu** %3, align 8
  %53 = getelementptr inbounds %struct.stu, %struct.stu* %52, i32 0, i32 6
  store %struct.stu* %51, %struct.stu** %53, align 8
  %54 = load %struct.stu*, %struct.stu** %2, align 8
  store %struct.stu* %54, %struct.stu** %3, align 8
  %55 = load i32, i32* @n, align 4
  %56 = add nsw i32 %55, 1
  store i32 %56, i32* @n, align 4
  br label %57

57:                                               ; preds = %37
  br label %58

58:                                               ; preds = %57
  br i1 true, label %23, label %59

59:                                               ; preds = %58, %34
  %60 = load %struct.stu*, %struct.stu** %1, align 8
  ret %struct.stu* %60
}

; Function Attrs: nounwind
declare dso_local noalias i8* @malloc(i64) #1

declare dso_local i32 @__isoc99_scanf(i8*, ...) #2

; Function Attrs: nounwind readonly
declare dso_local i32 @strcmp(i8*, i8*) #3

; Function Attrs: nounwind
declare dso_local void @free(i8*) #1

; Function Attrs: noinline nounwind uwtable
define dso_local %struct.stu* @del(%struct.stu* %0) #0 {
  %2 = alloca %struct.stu*, align 8
  %3 = alloca %struct.stu*, align 8
  %4 = alloca %struct.stu*, align 8
  store %struct.stu* %0, %struct.stu** %2, align 8
  %5 = load %struct.stu*, %struct.stu** %2, align 8
  store %struct.stu* %5, %struct.stu** %3, align 8
  br label %6

6:                                                ; preds = %16, %1
  %7 = load %struct.stu*, %struct.stu** %3, align 8
  %8 = icmp ne %struct.stu* %7, null
  br i1 %8, label %9, label %14

9:                                                ; preds = %6
  %10 = load %struct.stu*, %struct.stu** %3, align 8
  %11 = getelementptr inbounds %struct.stu, %struct.stu* %10, i32 0, i32 6
  %12 = load %struct.stu*, %struct.stu** %11, align 8
  %13 = icmp ne %struct.stu* %12, null
  br label %14

14:                                               ; preds = %9, %6
  %15 = phi i1 [ false, %6 ], [ %13, %9 ]
  br i1 %15, label %16, label %21

16:                                               ; preds = %14
  %17 = load %struct.stu*, %struct.stu** %3, align 8
  store %struct.stu* %17, %struct.stu** %4, align 8
  %18 = load %struct.stu*, %struct.stu** %3, align 8
  %19 = getelementptr inbounds %struct.stu, %struct.stu* %18, i32 0, i32 6
  %20 = load %struct.stu*, %struct.stu** %19, align 8
  store %struct.stu* %20, %struct.stu** %3, align 8
  br label %6

21:                                               ; preds = %14
  %22 = load %struct.stu*, %struct.stu** %3, align 8
  %23 = getelementptr inbounds %struct.stu, %struct.stu* %22, i32 0, i32 0
  %24 = getelementptr inbounds [10 x i8], [10 x i8]* %23, i64 0, i64 0
  %25 = load %struct.stu*, %struct.stu** %3, align 8
  %26 = getelementptr inbounds %struct.stu, %struct.stu* %25, i32 0, i32 1
  %27 = getelementptr inbounds [20 x i8], [20 x i8]* %26, i64 0, i64 0
  %28 = load %struct.stu*, %struct.stu** %3, align 8
  %29 = getelementptr inbounds %struct.stu, %struct.stu* %28, i32 0, i32 2
  %30 = load i8, i8* %29, align 2
  %31 = sext i8 %30 to i32
  %32 = load %struct.stu*, %struct.stu** %3, align 8
  %33 = getelementptr inbounds %struct.stu, %struct.stu* %32, i32 0, i32 3
  %34 = load i32, i32* %33, align 8
  %35 = load %struct.stu*, %struct.stu** %3, align 8
  %36 = getelementptr inbounds %struct.stu, %struct.stu* %35, i32 0, i32 4
  %37 = load float, float* %36, align 4
  %38 = fpext float %37 to double
  %39 = load %struct.stu*, %struct.stu** %3, align 8
  %40 = getelementptr inbounds %struct.stu, %struct.stu* %39, i32 0, i32 5
  %41 = getelementptr inbounds [30 x i8], [30 x i8]* %40, i64 0, i64 0
  %42 = call i32 (i8*, ...) @printf(i8* getelementptr inbounds ([19 x i8], [19 x i8]* @.str.4, i64 0, i64 0), i8* %24, i8* %27, i32 %31, i32 %34, double %38, i8* %41)
  %43 = load %struct.stu*, %struct.stu** %4, align 8
  %44 = getelementptr inbounds %struct.stu, %struct.stu* %43, i32 0, i32 6
  store %struct.stu* null, %struct.stu** %44, align 8
  %45 = load %struct.stu*, %struct.stu** %3, align 8
  %46 = bitcast %struct.stu* %45 to i8*
  call void @free(i8* %46) #4
  %47 = load %struct.stu*, %struct.stu** %2, align 8
  ret %struct.stu* %47
}

declare dso_local i32 @printf(i8*, ...) #2

; Function Attrs: noinline nounwind uwtable
define dso_local void @main() #0 {
  %1 = alloca %struct.stu*, align 8
  %2 = alloca i32, align 4
  %3 = call %struct.stu* @create()
  store %struct.stu* %3, %struct.stu** %1, align 8
  store i32 0, i32* %2, align 4
  br label %4

4:                                                ; preds = %11, %0
  %5 = load i32, i32* %2, align 4
  %6 = load i32, i32* @n, align 4
  %7 = icmp slt i32 %5, %6
  br i1 %7, label %8, label %14

8:                                                ; preds = %4
  %9 = load %struct.stu*, %struct.stu** %1, align 8
  %10 = call %struct.stu* @del(%struct.stu* %9)
  store %struct.stu* %10, %struct.stu** %1, align 8
  br label %11

11:                                               ; preds = %8
  %12 = load i32, i32* %2, align 4
  %13 = add nsw i32 %12, 1
  store i32 %13, i32* %2, align 4
  br label %4

14:                                               ; preds = %4
  ret void
}


!llvm.module.flags = !{!0}
!llvm.ident = !{!1}

!0 = !{i32 1, !"wchar_size", i32 4}
!1 = !{!"clang version 10.0.0-4ubuntu1 "}
